(dp0
S'LDA'
p1
(dp2
S'Basis_set'
p3
(lp4
S'DefBas-1'
p5
aS'DefBas-2'
p6
aS'DefBas-3'
p7
aS'DefBas-4'
p8
aS'DefBas-5'
p9
aS'DefBas-6'
p10
asS'DipoleM'
p11
(lp12
F1.20364
aF1.06933
aF1.12624
aF1.02524
aF1.03215
aF1.0047
asS'Ctime'
p13
(lp14
F7.774
aF7.91
aF11.203
aF16.153
aF18.637
aF34.132
asS'Nbasis'
p15
(lp16
I84
aI124
aI170
aI228
aI266
aI340
asS'Error'
p17
(lp18
cnumpy.core.multiarray
scalar
p19
(cnumpy
dtype
p20
(S'f8'
p21
I0
I1
tp22
Rp23
(I3
S'<'
p24
NNNI-1
I-1
I0
tp25
bS'\x08\xb13\x85\xcek\xc4?'
p26
tp27
Rp28
ag19
(g23
S"@'\x83\xa3\xe4\xd5\x99?"
p29
tp30
Rp31
ag19
(g23
S'@\x85\xb1\x85 \x07\xb5?'
p32
tp33
Rp34
ag19
(g23
S'\x00l\xcf,\tP\x93?'
p35
tp36
Rp37
ag19
(g23
S'\x00c\x7f\xd9=y\x88?'
p38
tp39
Rp40
ag19
(g23
S'\xc0\xbf\xec\x9e<,\xa4?'
p41
tp42
Rp43
assS'PWPB95'
p44
(dp45
g3
(lp46
g5
ag6
ag7
ag8
ag9
ag10
asg11
(lp47
F1.21889
aF1.08271
aF1.13128
aF1.03252
aF1.038
aF1.01553
asg13
(lp48
F22.067
aF43.942
aF136.277
aF233.517
aF448.902
aF1016.871
asg15
(lp49
I84
aI124
aI170
aI228
aI266
aI340
asg17
(lp50
g19
(g23
S'\xc8{\xd5\xca\x84_\xc6?'
p51
tp52
Rp53
ag19
(g23
S'\xe0\xdc\x98\x9e\xb0\xc4\xa3?'
p54
tp55
Rp56
ag19
(g23
S'\x00\x83\xdd\xb0mQ\xb6?'
p57
tp58
Rp59
ag19
(g23
S'\x00+MJA\xb7\x87?'
p60
tp61
Rp62
ag19
(g23
S'\x00\xf0\x16HP\xfcx?'
p63
tp64
Rp65
ag19
(g23
S'\xc0=\x96>tA\x9d?'
p66
tp67
Rp68
assS'mPW2PLYP'
p69
(dp70
g3
(lp71
g5
ag6
ag7
ag8
ag9
ag10
asg11
(lp72
F1.22046
aF1.0853
aF1.1375
aF1.04075
aF1.04637
aF1.02508
asg13
(lp73
F19.989
aF38.99
aF116.726
aF234.419
aF440.521
aF1007.562
asg15
(lp74
I84
aI124
aI170
aI228
aI266
aI340
asg17
(lp75
g19
(g23
S'\xa8I)\xe8\xf6\x92\xc6?'
p76
tp77
Rp78
ag19
(g23
S'\x00\xbe0\x99*\x18\xa5?'
p79
tp80
Rp81
ag19
(g23
S'@Gr\xf9\x0f\xe9\xb7?'
p82
tp83
Rp84
ag19
(g23
S'\x00\x96!\x8euqk?'
p85
tp86
Rp87
ag19
(g23
S'\x00\xa6a\xf8\x88\x98b?'
p88
tp89
Rp90
ag19
(g23
S'\xc02\xe1\x97\xfay\x93?'
p91
tp92
Rp93
assS'PBE0'
p94
(dp95
g3
(lp96
g5
ag6
ag7
ag8
ag9
ag10
asg11
(lp97
F1.1982
aF1.06561
aF1.11713
aF1.01271
aF1.01906
aF0.99543
asg13
(lp98
F18.853
aF31.197
aF94.842
aF163.746
aF299.764
aF719.091
asg15
(lp99
I84
aI124
aI170
aI228
aI266
aI340
asg17
(lp100
g19
(g23
S'\x08$(~\x8c\xb9\xc3?'
p101
tp102
Rp103
ag19
(g23
S'\xc0\xd8%\xaa\xb7\x06\x96?'
p104
tp105
Rp106
ag19
(g23
S'0{\xa0\x15\x18\xb2\xb2?'
p107
tp108
Rp109
ag19
(g23
S'\x00\xc7\xd7\x9eY\x12\xa0?'
p110
tp111
Rp112
ag19
(g23
S'@\x0b^\xf4\x15\xa4\x99?'
p113
tp114
Rp115
ag19
(g23
S'@\xb7\x974F\xeb\xa8?'
p116
tp117
Rp118
assS'PBE'
p119
(dp120
g3
(lp121
g5
ag6
ag7
ag8
ag9
ag10
asg11
(lp122
F1.15911
aF1.03055
aF1.08905
aF0.99127
aF1.00008
aF0.97564
asg13
(lp123
F7.646
aF8.476
aF12.108
aF17.536
aF22.576
aF37.608
asg15
(lp124
I84
aI124
aI170
aI228
aI266
aI340
asg17
(lp125
g19
(g23
S'\x90\x84\xb6\x9cKq\xbd?'
p126
tp127
Rp128
ag19
(g23
S'\x00\xeb\xe26\x1a\xc0\x8b?'
p129
tp130
Rp131
ag19
(g23
S'\x00\x10\xe9\xb7\xaf\x03\xa7?'
p132
tp133
Rp134
ag19
(g23
S'\xf0\xcf~\xa4\x88\x0c\xab?'
p135
tp136
Rp137
ag19
(g23
S' f\xbd\x18\xca\x89\xa6?'
p138
tp139
Rp140
ag19
(g23
S'\x88\x8b\x155\x98\x86\xb1?'
p141
tp142
Rp143
assS'M06L'
p144
(dp145
g3
(lp146
g5
ag6
ag7
ag8
ag9
ag10
asg11
(lp147
F1.17527
aF1.04775
aF1.07366
aF0.98586
aF0.98724
aF0.95931
asg13
(lp148
F9.785
aF11.898
aF20.44
aF27.472
aF33.517
aF52.388
asg15
(lp149
I84
aI124
aI170
aI228
aI266
aI340
asg17
(lp150
g19
(g23
S'`\xb0\x1b\xb6-\xca\xc0?'
p151
tp152
Rp153
ag19
(g23
S'\x00<,\xd4\x9a\xe6m?'
p154
tp155
Rp156
ag19
(g23
S'\x00<\x14\x05\xfaD\x9e?'
p157
tp158
Rp159
ag19
(g23
S'@Y\xa3\x1e\xa2\xd1\xad?'
p160
tp161
Rp162
ag19
(g23
S'\xd0\xaf\xe6\x00\xc1\x1c\xad?'
p163
tp164
Rp165
ag19
(g23
S'\x88 \x07%\xcc\xb4\xb5?'
p166
tp167
Rp168
assS'VWN'
p169
(dp170
g3
(lp171
g6
ag7
ag8
ag9
ag10
asg11
(lp172
F1.06933
aF1.12624
aF1.02524
aF1.03215
aF1.0047
asg13
(lp173
F7.121
aF11.529
aF15.449
aF18.505
aF32.559
asg15
(lp174
I124
aI170
aI228
aI266
aI340
asg17
(lp175
g19
(g23
S"@'\x83\xa3\xe4\xd5\x99?"
p176
tp177
Rp178
ag19
(g23
S'@\x85\xb1\x85 \x07\xb5?'
p179
tp180
Rp181
ag19
(g23
S'\x00l\xcf,\tP\x93?'
p182
tp183
Rp184
ag19
(g23
S'\x00c\x7f\xd9=y\x88?'
p185
tp186
Rp187
ag19
(g23
S'\xc0\xbf\xec\x9e<,\xa4?'
p188
tp189
Rp190
assS'M06-2X'
p191
(dp192
g3
(lp193
sg11
(lp194
sg13
(lp195
sg15
(lp196
sg17
(lp197
ssS'B3LYP'
p198
(dp199
g3
(lp200
g5
ag6
ag7
ag8
ag9
ag10
asg11
(lp201
F1.18166
aF1.05246
aF1.11212
aF1.01607
aF1.02321
aF1.00002
asg13
(lp202
F25.011
aF38.412
aF95.259
aF194.597
aF361.982
aF854.213
asg15
(lp203
I84
aI124
aI170
aI228
aI266
aI340
asg17
(lp204
g19
(g23
S'\xe8n\x9e\xea\x90\x9b\xc1?'
p205
tp206
Rp207
ag19
(g23
S'\x80\xa8\xc14\x0c\x1f\x81?'
p208
tp209
Rp210
ag19
(g23
S'\xd0Ry;\xc2i\xb1?'
p211
tp212
Rp213
ag19
(g23
S'\xc0>:u\xe5\xb3\x9c?'
p214
tp215
Rp216
ag19
(g23
S'\x80\xf6@+0d\x95?'
p217
tp218
Rp219
ag19
(g23
S'\x80\xbb\xd0\\\xa7\x91\xa6?'
p220
tp221
Rp222
assS'TPSS'
p223
(dp224
g3
(lp225
g5
ag6
ag7
ag8
ag9
ag10
asg11
(lp226
F1.15299
aF1.02957
aF1.08605
aF1.00265
aF1.00107
aF0.97591
asg13
(lp227
F11.525
aF11.752
aF18.366
aF20.993
aF34.878
aF53.429
asg15
(lp228
I84
aI124
aI170
aI228
aI266
aI340
asg17
(lp229
g19
(g23
S'P\x87\xdc\x0c7\xe0\xbb?'
p230
tp231
Rp232
ag19
(g23
S'\x80\xae|\x96\xe7\xc1\x8d?'
p233
tp234
Rp235
ag19
(g23
S'\x00h"lxz\xa5?'
p236
tp237
Rp238
ag19
(g23
S'`\xa1\xd64\xef8\xa5?'
p239
tp240
Rp241
ag19
(g23
S' g~5\x07\x08\xa6?'
p242
tp243
Rp244
ag19
(g23
S'\xa0\x0b\xea[\xe6t\xb1?'
p245
tp246
Rp247
assS'TPSS0'
p248
(dp249
g3
(lp250
g5
ag6
ag7
ag8
ag9
ag10
asg11
(lp251
F1.19353
aF1.06453
aF1.11534
aF1.01357
aF1.0196
aF0.99562
asg13
(lp252
F21.732
aF36.123
aF89.987
aF173.566
aF311.232
aF731.44
asg15
(lp253
I84
aI124
aI170
aI228
aI266
aI340
asg17
(lp254
g19
(g23
S'\xa8H\x85\xb1\x85 \xc3?'
p255
tp256
Rp257
ag19
(g23
S'\xc0\xdam\x17\x9a\xeb\x94?'
p258
tp259
Rp260
ag19
(g23
S' \xc3*\xde\xc8<\xb2?'
p261
tp262
Rp263
ag19
(g23
S'@\x010\x9eAC\x9f?'
p264
tp265
Rp266
ag19
(g23
S'@\x0c\x02+\x87\x16\x99?'
p267
tp268
Rp269
ag19
(g23
S'@)\x05\xdd^\xd2\xa8?'
p270
tp271
Rp272
assS'BP86'
p273
(dp274
g3
(lp275
g5
ag6
ag7
ag8
ag9
ag10
asg11
(lp276
F1.16176
aF1.0345
aF1.09124
aF0.99407
aF1.00055
aF0.97483
asg13
(lp277
F9.407
aF8.965
aF13.932
aF18.907
aF22.101
aF37.153
asg15
(lp278
I84
aI124
aI170
aI228
aI266
aI340
asg17
(lp279
g19
(g23
S'\xc0\x1f\x0c<\xf7\x1e\xbe?'
p280
tp281
Rp282
ag19
(g23
S'\x802U0*\xa9\x83?'
p283
tp284
Rp285
ag19
(g23
S'\xa0\xb8\xaa\xec\xbb"\xa8?'
p286
tp287
Rp288
ag19
(g23
S'@D\xa3;\x88\x9d\xa9?'
p289
tp290
Rp291
ag19
(g23
S' J{\x83/L\xa6?'
p292
tp293
Rp294
ag19
(g23
S'(\x0b\x98\xc0\xad\xbb\xb1?'
p295
tp296
Rp297
assS'B2PLYP'
p298
(dp299
g3
(lp300
g5
ag6
ag7
ag8
ag9
ag10
asg11
(lp301
F1.21783
aF1.08376
aF1.13549
aF1.03862
aF1.04379
aF1.02234
asg13
(lp302
F19.153
aF40.608
aF114.305
aF232.705
aF421.093
aF1004.922
asg15
(lp303
I84
aI124
aI170
aI228
aI266
aI340
asg17
(lp304
g19
(g23
S' \xc3*\xde\xc8<\xc6?'
p305
tp306
Rp307
ag19
(g23
S'@1\xeb\xc5PN\xa4?'
p308
tp309
Rp310
ag19
(g23
S'\xe0r.\xc5Ue\xb7?'
p311
tp312
Rp313
ag19
(g23
S'\x00f\x83L2rv?'
p314
tp315
Rp316
ag19
(g23
S'\x00P\x9c\xdc\xefP4?'
p317
tp318
Rp319
ag19
(g23
S'\x80\x9fq\xe1@H\x96?'
p320
tp321
Rp322
ass.