(dp0
S'CCSD'
p1
(dp2
S'E_corr'
p3
(lp4
cnumpy.core.multiarray
scalar
p5
(cnumpy
dtype
p6
(S'f8'
p7
I0
I1
tp8
Rp9
(I3
S'<'
p10
NNNI-1
I-1
I0
tp11
bS'\x00R\xb7\xf0"\x80\xbe?'
p12
tp13
Rp14
ag5
(g9
S'\x00\x13\xa0)K\xb0\xc7?'
p15
tp16
Rp17
ag5
(g9
S'\x00\xc5\x16v\x0e,\xcc?'
p18
tp19
Rp20
ag5
(g9
S'\x00l\xdd4\xd3^\xcd?'
p21
tp22
Rp23
asS'Ctime'
p24
(lp25
F1.309
aF1.843
aF11.863
aF253.293
asS'E_corr_percent'
p26
(lp27
g5
(g9
S'F\x13\x89\x86)\x93>@'
p28
tp29
Rp30
ag5
(g9
S'\x0eZ\xb6_<\xc5H@'
p31
tp32
Rp33
ag5
(g9
S'B\x8e^\x87\xd8\xf3N@'
p34
tp35
Rp36
ag5
(g9
S'\xe9\x0b\xf6\xe8aEP@'
p37
tp38
Rp39
asS'Energy'
p40
(lp41
F-40.244521209688
aF-40.326556405993
aF-40.379612858681
aF-40.391956744637
asS'Nbasis'
p42
(lp43
I17
aI34
aI86
aI175
asS'Basis_set'
p44
(lp45
S'6-31G'
p46
aS'cc-pVDZ'
p47
aS'cc-pVTZ'
p48
aS'cc-pVQZ'
p49
assS'QCISD'
p50
(dp51
g3
(lp52
g5
(g9
S'\x00\xda\xbat\xd8\x87\xbe?'
p53
tp54
Rp55
ag5
(g9
S'\x001\xa8{\x1f\xb6\xc7?'
p56
tp57
Rp58
ag5
(g9
S'\x00\x0e\xdb\xfc\x077\xcc?'
p59
tp60
Rp61
ag5
(g9
S'\x00\x98\x9a-\x17k\xcd?'
p62
tp63
Rp64
ag5
(g9
S'\x00X\x81\xa5\xba\xc6\xcd?'
p65
tp66
Rp67
asg24
(lp68
F1.107
aF1.55
aF8.74
aF213.341
aF7479.655
asg26
(lp69
g5
(g9
S'ok\x98\xd9\xe3\x9a>@'
p70
tp71
Rp72
ag5
(g9
S'\xcdHZ\xd8T\xcbH@'
p73
tp74
Rp75
ag5
(g9
S'\xb5\xd2\xf2V\xe7\xffN@'
p76
tp77
Rp78
ag5
(g9
S'\xcc\xf1Po-LP@'
p79
tp80
Rp81
ag5
(g9
S'6\xf6\xf4\x7f\x00\x88P@'
p82
tp83
Rp84
asg40
(lp85
F-40.244638840389
aF-40.326734304452
aF-40.379947780331
aF-40.392331058425
aF-40.395882176356
asg42
(lp86
I17
aI34
aI86
aI175
aI311
asg44
(lp87
g46
ag47
ag48
ag49
aS'cc-pV5Z'
p88
assS'CCSD(T)'
p89
(dp90
g3
(lp91
g5
(g9
S'\x00\xa0\xc3\xcc\r\xf4\xbe?'
p92
tp93
Rp94
ag5
(g9
S'\x00\xb7\xc2\x0b\x89/\xc8?'
p95
tp96
Rp97
ag5
(g9
S'\x00Cpf[\x00\xcd?'
p98
tp99
Rp100
ag5
(g9
S'\x00\xc7\x97\x7f]H\xce?'
p101
tp102
Rp103
asg24
(lp104
F1.187
aF1.821
aF12.807
aF264.664
asg26
(lp105
g5
(g9
S'L\x03D\xb1\\\x07?@'
p106
tp107
Rp108
ag5
(g9
S'\xdf\xe5\xb9\xd4IJI@'
p109
tp110
Rp111
ag5
(g9
S'\xf5\xac\xcef\x19\xddO@'
p112
tp113
Rp114
ag5
(g9
S'Y\xc6(%\xc3\xc6P@'
p115
tp116
Rp117
asg40
(lp118
F-40.246289969151
aF-40.330439515484
aF-40.386091757071
aF-40.39908382602
asg42
(lp119
I17
aI34
aI86
aI175
asg44
(lp120
g46
ag47
ag48
ag49
assS'MP2'
p121
(dp122
g3
(lp123
g5
(g9
S'\x00 \xe8\xd6\xe73\xb9?'
p124
tp125
Rp126
ag5
(g9
S'\x00+\x98\xe7T\x89\xc4?'
p127
tp128
Rp129
ag5
(g9
S'\x00fC\x1b\xe8k\xc9?'
p130
tp131
Rp132
ag5
(g9
S'\x00Gf\xf8\xd9\xf1\xca?'
p133
tp134
Rp135
ag5
(g9
S'\x00\x00J\xdf7\x80\xcb?'
p136
tp137
Rp138
asg24
(lp139
F1.015
aF1.541
aF3.765
aF45.369
aF570.584
asg26
(lp140
g5
(g9
S'\x03i7n\xa0C9@'
p141
tp142
Rp143
ag5
(g9
S'\xc3\xdf\xab\xfbkyE@'
p144
tp145
Rp146
ag5
(g9
S'\x1b\x10\xacK3\xeeK@'
p147
tp148
Rp149
ag5
(g9
S'\x87\xd4\x7f\xe0\xbb\xdaM@'
p150
tp151
Rp152
ag5
(g9
S'\xf3=\xccp4\x89N@'
p153
tp154
Rp155
asg40
(lp156
F-40.223826769036
aF-40.301929881791
aF-40.358123911434
aF-40.37300613493
aF-40.378105356378
asg42
(lp157
I17
aI34
aI86
aI175
aI311
asg44
(lp158
g46
ag47
ag48
ag49
ag88
assS'DLPNO-CCSD'
p159
(dp160
g3
(lp161
g5
(g9
S'\x00s\xe45\xde\xb1\xc7?'
p162
tp163
Rp164
ag5
(g9
S'\x00\x96\x82\xedR0\xcc?'
p165
tp166
Rp167
ag5
(g9
S'\x00\xd8\xb5\xcfNf\xcd?'
p168
tp169
Rp170
asg24
(lp171
F3.382
aF28.588
aF187.929
asg26
(lp172
g5
(g9
S'[\xa7\xfb\xd3\xe1\xc6H@'
p173
tp174
Rp175
ag5
(g9
S'\x9c\x91\xc8\xd0\x88\xf8N@'
p176
tp177
Rp178
ag5
(g9
S'\xf9x\xaa$\x87IP@'
p179
tp180
Rp181
asg40
(lp182
F-40.326604453049
aF-40.379743090835
aF-40.392185102532
asg42
(lp183
I34
aI86
aI175
asg44
(lp184
g47
ag48
ag49
assS'HF'
p185
(dp186
g3
(lp187
g5
(g9
S'\x00\x00\x00\x00\x00\x00\x00\x00'
p188
tp189
Rp190
ag5
(g9
S'\x00\x00\x00\x00\x00\x00\x00\x00'
p191
tp192
Rp193
ag5
(g9
S'\x00\x00\x00\x00\x00\x00\x00\x00'
p194
tp195
Rp196
ag5
(g9
S'\x00\x00\x00\x00\x00\x00\x00\x00'
p197
tp198
Rp199
ag5
(g9
S'\x00\x00\x00\x00\x00\x00\x00\x00'
p200
tp201
Rp202
asg24
(lp203
F1.328
aF1.926
aF4.899
aF45.85
aF402.75
asg26
(lp204
g5
(g9
S'\x00\x00\x00\x00\x00\x00\x00\x00'
p205
tp206
Rp207
ag5
(g9
S'\x00\x00\x00\x00\x00\x00\x00\x00'
p208
tp209
Rp210
ag5
(g9
S'\x00\x00\x00\x00\x00\x00\x00\x00'
p211
tp212
Rp213
ag5
(g9
S'\x00\x00\x00\x00\x00\x00\x00\x00'
p214
tp215
Rp216
ag5
(g9
S'\x00\x00\x00\x00\x00\x00\x00\x00'
p217
tp218
Rp219
asg40
(lp220
F-40.125378502084
aF-40.141488852163
aF-40.159518361324
aF-40.162500414516
aF-40.16325494589
asg42
(lp221
I17
aI34
aI86
aI175
aI311
asg44
(lp222
g46
ag47
ag48
ag49
ag88
ass.